; Function Attrs: mustprogress nofree norecurse nosync nounwind willreturn memory(argmem: read) uwtable
define noundef nonnull align 4 dereferenceable(4) ptr @_ZN15SortedTreeNodes14SliceTableData11faceIndicesEi(ptr nocapture noundef nonnull readonly align 8 dereferenceable(72) %0, i32 noundef %1) local_unnamed_addr #16 align 2 {
  %3 = getelementptr inbounds i8, ptr %0, i64 16
  %4 = load ptr, ptr %3, align 8
  %5 = getelementptr inbounds i8, ptr %0, i64 36
  %6 = load i32, ptr %5, align 4
  %7 = sub nsw i32 %1, %6
  %8 = sext i32 %7 to i64
  %9 = getelementptr inbounds %"struct.SortedTreeNodes::_Indices.23", ptr %4, i64 %8
  ret ptr %9
}